target datalayout = "e-m:e-p270:32:32-p271:32:32-p272:64:64-i64:64-i128:128-f80:128-n8:16:32:64-S128"
target triple = "x86_64-pc-linux-gnu"

%struct.quic_lcidm_st = type { ptr, ptr, ptr, i64 }
%struct.quic_lcid_st = type { %struct.quic_conn_id_st, i64, ptr, i8 }
%struct.quic_conn_id_st = type { i8, [20 x i8] }

; Function Attrs: inlinehint nounwind uwtable
define internal ptr @lh_QUIC_LCID_retrieve(ptr noundef %0, ptr noundef %1) #3 {
  %3 = alloca ptr, align 8
  %4 = alloca ptr, align 8
  store ptr %0, ptr %3, align 8, !tbaa !30
  store ptr %1, ptr %4, align 8, !tbaa !20
  %5 = load ptr, ptr %3, align 8, !tbaa !30
  %6 = load ptr, ptr %4, align 8, !tbaa !20
  %7 = call ptr @OPENSSL_LH_retrieve(ptr noundef %5, ptr noundef %6)
  ret ptr %7
}

; Function Attrs: nounwind uwtable
define i32 @ossl_quic_lcidm_debug_add(ptr noundef %0, ptr noundef %1, ptr noundef %2, i64 noundef %3) #0 {
  %5 = alloca i32, align 4
  %6 = alloca ptr, align 8
  %7 = alloca ptr, align 8
  %8 = alloca ptr, align 8
  %9 = alloca i64, align 8
  %10 = alloca ptr, align 8
  %11 = alloca %struct.quic_lcid_st, align 8
  %12 = alloca ptr, align 8
  %13 = alloca i32, align 4
  store ptr %0, ptr %6, align 8, !tbaa !10
  store ptr %1, ptr %7, align 8, !tbaa !19
  store ptr %2, ptr %8, align 8, !tbaa !33
  store i64 %3, ptr %9, align 8, !tbaa !8
  call void @llvm.lifetime.start.p0(i64 8, ptr %10) #7
  call void @llvm.lifetime.start.p0(i64 48, ptr %11) #7
  call void @llvm.lifetime.start.p0(i64 8, ptr %12) #7
  %14 = load ptr, ptr %8, align 8, !tbaa !33
  %15 = icmp eq ptr %14, null
  br i1 %15, label %22, label %16

16:                                               ; preds = %4
  %17 = load ptr, ptr %8, align 8, !tbaa !33
  %18 = getelementptr inbounds nuw %struct.quic_conn_id_st, ptr %17, i32 0, i32 0
  %19 = load i8, ptr %18, align 1, !tbaa !35
  %20 = zext i8 %19 to i32
  %21 = icmp sgt i32 %20, 20
  br i1 %21, label %22, label %23

22:                                               ; preds = %16, %4
  store i32 0, ptr %5, align 4
  store i32 1, ptr %13, align 4
  br label %54

23:                                               ; preds = %16
  %24 = load ptr, ptr %6, align 8, !tbaa !10
  %25 = load ptr, ptr %7, align 8, !tbaa !19
  %26 = call ptr @lcidm_upsert_conn(ptr noundef %24, ptr noundef %25)
  store ptr %26, ptr %10, align 8, !tbaa !27
  %27 = icmp eq ptr %26, null
  br i1 %27, label %28, label %29

28:                                               ; preds = %23
  store i32 0, ptr %5, align 4
  store i32 1, ptr %13, align 4
  br label %54

29:                                               ; preds = %23
  %30 = getelementptr inbounds nuw %struct.quic_lcid_st, ptr %11, i32 0, i32 0
  %31 = load ptr, ptr %8, align 8, !tbaa !33
  call void @llvm.memcpy.p0.p0.i64(ptr align 8 %30, ptr align 1 %31, i64 21, i1 false), !tbaa.struct !36
  %32 = load ptr, ptr %6, align 8, !tbaa !10
  %33 = getelementptr inbounds nuw %struct.quic_lcidm_st, ptr %32, i32 0, i32 1
  %34 = load ptr, ptr %33, align 8, !tbaa !12
  %35 = call ptr @lh_QUIC_LCID_retrieve(ptr noundef %34, ptr noundef %11)
  %36 = icmp ne ptr %35, null
  br i1 %36, label %37, label %38

37:                                               ; preds = %29
  store i32 0, ptr %5, align 4
  store i32 1, ptr %13, align 4
  br label %54

38:                                               ; preds = %29
  %39 = load ptr, ptr %6, align 8, !tbaa !10
  %40 = load ptr, ptr %10, align 8, !tbaa !27
  %41 = load ptr, ptr %8, align 8, !tbaa !33
  %42 = call ptr @lcidm_conn_new_lcid(ptr noundef %39, ptr noundef %40, ptr noundef %41)
  store ptr %42, ptr %12, align 8, !tbaa !20
  %43 = icmp eq ptr %42, null
  br i1 %43, label %44, label %45

44:                                               ; preds = %38
  store i32 0, ptr %5, align 4
  store i32 1, ptr %13, align 4
  br label %54

45:                                               ; preds = %38
  %46 = load i64, ptr %9, align 8, !tbaa !8
  %47 = load ptr, ptr %12, align 8, !tbaa !20
  %48 = getelementptr inbounds nuw %struct.quic_lcid_st, ptr %47, i32 0, i32 1
  store i64 %46, ptr %48, align 8, !tbaa !38
  %49 = load ptr, ptr %12, align 8, !tbaa !20
  %50 = getelementptr inbounds nuw %struct.quic_lcid_st, ptr %49, i32 0, i32 3
  %51 = load i8, ptr %50, align 8
  %52 = and i8 %51, -4
  %53 = or i8 %52, 2
  store i8 %53, ptr %50, align 8
  store i32 1, ptr %5, align 4
  store i32 1, ptr %13, align 4
  br label %54

54:                                               ; preds = %45, %44, %37, %28, %22
  call void @llvm.lifetime.end.p0(i64 8, ptr %12) #7
  call void @llvm.lifetime.end.p0(i64 48, ptr %11) #7
  call void @llvm.lifetime.end.p0(i64 8, ptr %10) #7
  %55 = load i32, ptr %5, align 4
  ret i32 %55
}