; Function Attrs: nounwind uwtable
define range(i32 0, 2) i32 @ossl_quic_lcidm_debug_add(ptr noundef readonly captures(none) %0, ptr noundef %1, ptr noundef readonly captures(address_is_null) %2, i64 noundef %3) local_unnamed_addr #0 {
  %5 = alloca %struct.quic_lcid_st, align 8
  call void @llvm.lifetime.start.p0(i64 48, ptr nonnull %5) #11
  %6 = icmp eq ptr %2, null
  br i1 %6, label %26, label %7

7:                                                ; preds = %4
  %8 = load i8, ptr %2, align 1, !tbaa !23
  %9 = icmp ugt i8 %8, 20
  br i1 %9, label %26, label %10

10:                                               ; preds = %7
  %11 = tail call fastcc ptr @lcidm_upsert_conn(ptr noundef %0, ptr noundef %1)
  %12 = icmp eq ptr %11, null
  br i1 %12, label %26, label %13

13:                                               ; preds = %10
  call void @llvm.memcpy.p0.p0.i64(ptr noundef nonnull align 8 dereferenceable(21) %5, ptr noundef nonnull align 1 dereferenceable(21) %2, i64 21, i1 false), !tbaa.struct !29
  %14 = getelementptr inbounds nuw i8, ptr %0, i64 8
  %15 = load ptr, ptr %14, align 8, !tbaa !3
  %16 = call ptr @OPENSSL_LH_retrieve(ptr noundef %15, ptr noundef nonnull %5) #11
  %.not = icmp eq ptr %16, null
  br i1 %.not, label %17, label %26

17:                                               ; preds = %13
  %18 = call fastcc ptr @lcidm_conn_new_lcid(ptr noundef nonnull %0, ptr noundef %11, ptr noundef nonnull %2)
  %19 = icmp eq ptr %18, null
  br i1 %19, label %26, label %20

20:                                               ; preds = %17
  %21 = getelementptr inbounds nuw i8, ptr %18, i64 24
  store i64 %3, ptr %21, align 8, !tbaa !30
  %22 = getelementptr inbounds nuw i8, ptr %18, i64 40
  %23 = load i8, ptr %22, align 8
  %24 = and i8 %23, -4
  %25 = or disjoint i8 %24, 2
  store i8 %25, ptr %22, align 8
  br label %26

26:                                               ; preds = %17, %13, %10, %4, %7, %20
  %.0 = phi i32 [ 1, %20 ], [ 0, %7 ], [ 0, %4 ], [ 0, %10 ], [ 0, %13 ], [ 0, %17 ]
  call void @llvm.lifetime.end.p0(i64 48, ptr nonnull %5) #11
  ret i32 %.0
}